target datalayout = "e-m:e-p270:32:32-p271:32:32-p272:64:64-i64:64-i128:128-f80:128-n8:16:32:64-S128"
target triple = "x86_64-pc-linux-gnu"

%struct.AllocSetFreeList = type { i32, ptr }
%struct.AllocSetContext = type { %struct.MemoryContextData, ptr, [11 x ptr], i32, i32, i32, i32, i32 }
%struct.MemoryContextData = type { i32, i8, i8, i64, ptr, ptr, ptr, ptr, ptr, ptr, ptr, ptr }
%struct.AllocBlockData = type { ptr, ptr, ptr, ptr, ptr }

@context_freelists = internal global [2 x %struct.AllocSetFreeList] zeroinitializer, align 16
@TopMemoryContext = external global ptr, align 8
@.str = private unnamed_addr constant [14 x i8] c"out of memory\00", align 1
@.str.1 = private unnamed_addr constant [43 x i8] c"Failed while creating memory context \22%s\22.\00", align 1
@.str.2 = private unnamed_addr constant [7 x i8] c"aset.c\00", align 1
@__func__.AllocSetContextCreateInternal = private unnamed_addr constant [30 x i8] c"AllocSetContextCreateInternal\00", align 1

; Function Attrs: nounwind uwtable
define dso_local ptr @AllocSetContextCreateInternal(ptr noundef %0, ptr noundef %1, i64 noundef %2, i64 noundef %3, i64 noundef %4) #0 {
  %6 = alloca ptr, align 8
  %7 = alloca ptr, align 8
  %8 = alloca ptr, align 8
  %9 = alloca i64, align 8
  %10 = alloca i64, align 8
  %11 = alloca i64, align 8
  %12 = alloca i32, align 4
  %13 = alloca i64, align 8
  %14 = alloca ptr, align 8
  %15 = alloca ptr, align 8
  %16 = alloca ptr, align 8
  %17 = alloca i32, align 4
  %18 = alloca ptr, align 8
  %19 = alloca i32, align 4
  %20 = alloca i64, align 8
  %21 = alloca ptr, align 8
  store ptr %0, ptr %7, align 8
  store ptr %1, ptr %8, align 8
  store i64 %2, ptr %9, align 8
  store i64 %3, ptr %10, align 8
  store i64 %4, ptr %11, align 8
  call void @llvm.lifetime.start.p0(i64 4, ptr %12) #14
  call void @llvm.lifetime.start.p0(i64 8, ptr %13) #14
  call void @llvm.lifetime.start.p0(i64 8, ptr %14) #14
  call void @llvm.lifetime.start.p0(i64 8, ptr %15) #14
  %22 = load i64, ptr %9, align 8
  %23 = icmp eq i64 %22, 0
  br i1 %23, label %24, label %28

24:                                               ; preds = %5
  %25 = load i64, ptr %10, align 8
  %26 = icmp eq i64 %25, 8192
  br i1 %26, label %27, label %28

27:                                               ; preds = %24
  store i32 0, ptr %12, align 4
  br label %37

28:                                               ; preds = %24, %5
  %29 = load i64, ptr %9, align 8
  %30 = icmp eq i64 %29, 0
  br i1 %30, label %31, label %35

31:                                               ; preds = %28
  %32 = load i64, ptr %10, align 8
  %33 = icmp eq i64 %32, 1024
  br i1 %33, label %34, label %35

34:                                               ; preds = %31
  store i32 1, ptr %12, align 4
  br label %36

35:                                               ; preds = %31, %28
  store i32 -1, ptr %12, align 4
  br label %36

36:                                               ; preds = %35, %34
  br label %37

37:                                               ; preds = %36, %27
  %38 = load i32, ptr %12, align 4
  %39 = icmp sge i32 %38, 0
  br i1 %39, label %40, label %84

40:                                               ; preds = %37
  call void @llvm.lifetime.start.p0(i64 8, ptr %16) #14
  %41 = load i32, ptr %12, align 4
  %42 = sext i32 %41 to i64
  %43 = getelementptr inbounds [2 x %struct.AllocSetFreeList], ptr @context_freelists, i64 0, i64 %42
  store ptr %43, ptr %16, align 8
  %44 = load ptr, ptr %16, align 8
  %45 = getelementptr inbounds nuw %struct.AllocSetFreeList, ptr %44, i32 0, i32 1
  %46 = load ptr, ptr %45, align 8
  %47 = icmp ne ptr %46, null
  br i1 %47, label %48, label %80

48:                                               ; preds = %40
  %49 = load ptr, ptr %16, align 8
  %50 = getelementptr inbounds nuw %struct.AllocSetFreeList, ptr %49, i32 0, i32 1
  %51 = load ptr, ptr %50, align 8
  store ptr %51, ptr %14, align 8
  %52 = load ptr, ptr %14, align 8
  %53 = getelementptr inbounds nuw %struct.AllocSetContext, ptr %52, i32 0, i32 0
  %54 = getelementptr inbounds nuw %struct.MemoryContextData, ptr %53, i32 0, i32 8
  %55 = load ptr, ptr %54, align 8
  %56 = load ptr, ptr %16, align 8
  %57 = getelementptr inbounds nuw %struct.AllocSetFreeList, ptr %56, i32 0, i32 1
  store ptr %55, ptr %57, align 8
  %58 = load ptr, ptr %16, align 8
  %59 = getelementptr inbounds nuw %struct.AllocSetFreeList, ptr %58, i32 0, i32 0
  %60 = load i32, ptr %59, align 8
  %61 = add i32 %60, -1
  store i32 %61, ptr %59, align 8
  %62 = load i64, ptr %11, align 8
  %63 = trunc i64 %62 to i32
  %64 = load ptr, ptr %14, align 8
  %65 = getelementptr inbounds nuw %struct.AllocSetContext, ptr %64, i32 0, i32 4
  store i32 %63, ptr %65, align 4
  %66 = load ptr, ptr %14, align 8
  %67 = load ptr, ptr %7, align 8
  %68 = load ptr, ptr %8, align 8
  call void @MemoryContextCreate(ptr noundef %66, i32 noundef 473, i32 noundef 3, ptr noundef %67, ptr noundef %68)
  %69 = load ptr, ptr %14, align 8
  %70 = getelementptr inbounds nuw i8, ptr %69, i64 200
  %71 = getelementptr inbounds nuw %struct.AllocBlockData, ptr %70, i32 0, i32 4
  %72 = load ptr, ptr %71, align 8
  %73 = load ptr, ptr %14, align 8
  %74 = ptrtoint ptr %72 to i64
  %75 = ptrtoint ptr %73 to i64
  %76 = sub i64 %74, %75
  %77 = load ptr, ptr %14, align 8
  %78 = getelementptr inbounds nuw %struct.MemoryContextData, ptr %77, i32 0, i32 3
  store i64 %76, ptr %78, align 8
  %79 = load ptr, ptr %14, align 8
  store ptr %79, ptr %6, align 8
  store i32 1, ptr %17, align 4
  br label %81

80:                                               ; preds = %40
  store i32 0, ptr %17, align 4
  br label %81

81:                                               ; preds = %80, %48
  call void @llvm.lifetime.end.p0(i64 8, ptr %16) #14
  %82 = load i32, ptr %17, align 4
  switch i32 %82, label %232 [
    i32 0, label %83
  ]

83:                                               ; preds = %81
  br label %84

84:                                               ; preds = %83, %37
  store i64 248, ptr %13, align 8
  %85 = load i64, ptr %9, align 8
  %86 = icmp ne i64 %85, 0
  br i1 %86, label %87, label %97

87:                                               ; preds = %84
  %88 = load i64, ptr %13, align 8
  %89 = load i64, ptr %9, align 8
  %90 = icmp ugt i64 %88, %89
  br i1 %90, label %91, label %93

91:                                               ; preds = %87
  %92 = load i64, ptr %13, align 8
  br label %95

93:                                               ; preds = %87
  %94 = load i64, ptr %9, align 8
  br label %95

95:                                               ; preds = %93, %91
  %96 = phi i64 [ %92, %91 ], [ %94, %93 ]
  store i64 %96, ptr %13, align 8
  br label %107

97:                                               ; preds = %84
  %98 = load i64, ptr %13, align 8
  %99 = load i64, ptr %10, align 8
  %100 = icmp ugt i64 %98, %99
  br i1 %100, label %101, label %103

101:                                              ; preds = %97
  %102 = load i64, ptr %13, align 8
  br label %105

103:                                              ; preds = %97
  %104 = load i64, ptr %10, align 8
  br label %105

105:                                              ; preds = %103, %101
  %106 = phi i64 [ %102, %101 ], [ %104, %103 ]
  store i64 %106, ptr %13, align 8
  br label %107

107:                                              ; preds = %105, %95
  %108 = load i64, ptr %13, align 8
  %109 = call noalias ptr @malloc(i64 noundef %108) #15
  store ptr %109, ptr %14, align 8
  %110 = load ptr, ptr %14, align 8
  %111 = icmp eq ptr %110, null
  br i1 %111, label %112, label %131

112:                                              ; preds = %107
  %113 = load ptr, ptr @TopMemoryContext, align 8
  %114 = icmp ne ptr %113, null
  br i1 %114, label %115, label %117

115:                                              ; preds = %112
  %116 = load ptr, ptr @TopMemoryContext, align 8
  call void @MemoryContextStats(ptr noundef %116)
  br label %117

117:                                              ; preds = %115, %112
  br label %118

118:                                              ; preds = %117
  br i1 true, label %119, label %121

119:                                              ; preds = %118
  %120 = call zeroext i1 @errstart_cold(i32 noundef 21, ptr noundef null) #16
  br i1 %120, label %123, label %128

121:                                              ; preds = %118
  %122 = call zeroext i1 @errstart(i32 noundef 21, ptr noundef null)
  br i1 %122, label %123, label %128

123:                                              ; preds = %121, %119
  %124 = call i32 @errcode(i32 noundef 8389)
  %125 = call i32 (ptr, ...) @errmsg(ptr noundef @.str)
  %126 = load ptr, ptr %8, align 8
  %127 = call i32 (ptr, ...) @errdetail(ptr noundef @.str.1, ptr noundef %126)
  call void @errfinish(ptr noundef @.str.2, i32 noundef 453, ptr noundef @__func__.AllocSetContextCreateInternal)
  br label %128

128:                                              ; preds = %123, %121, %119
  unreachable

129:                                              ; No predecessors!
  br label %130

130:                                              ; preds = %129
  br label %131

131:                                              ; preds = %130, %107
  %132 = load ptr, ptr %14, align 8
  %133 = getelementptr inbounds nuw i8, ptr %132, i64 200
  store ptr %133, ptr %15, align 8
  %134 = load ptr, ptr %14, align 8
  %135 = load ptr, ptr %15, align 8
  %136 = getelementptr inbounds nuw %struct.AllocBlockData, ptr %135, i32 0, i32 0
  store ptr %134, ptr %136, align 8
  %137 = load ptr, ptr %15, align 8
  %138 = getelementptr inbounds nuw i8, ptr %137, i64 40
  %139 = load ptr, ptr %15, align 8
  %140 = getelementptr inbounds nuw %struct.AllocBlockData, ptr %139, i32 0, i32 3
  store ptr %138, ptr %140, align 8
  %141 = load ptr, ptr %14, align 8
  %142 = load i64, ptr %13, align 8
  %143 = getelementptr inbounds nuw i8, ptr %141, i64 %142
  %144 = load ptr, ptr %15, align 8
  %145 = getelementptr inbounds nuw %struct.AllocBlockData, ptr %144, i32 0, i32 4
  store ptr %143, ptr %145, align 8
  %146 = load ptr, ptr %15, align 8
  %147 = getelementptr inbounds nuw %struct.AllocBlockData, ptr %146, i32 0, i32 1
  store ptr null, ptr %147, align 8
  %148 = load ptr, ptr %15, align 8
  %149 = getelementptr inbounds nuw %struct.AllocBlockData, ptr %148, i32 0, i32 2
  store ptr null, ptr %149, align 8
  br label %150

150:                                              ; preds = %131
  br label %151

151:                                              ; preds = %150
  br label %152

152:                                              ; preds = %151
  %153 = load ptr, ptr %15, align 8
  %154 = load ptr, ptr %14, align 8
  %155 = getelementptr inbounds nuw %struct.AllocSetContext, ptr %154, i32 0, i32 1
  store ptr %153, ptr %155, align 8
  br label %156

156:                                              ; preds = %152
  call void @llvm.lifetime.start.p0(i64 8, ptr %18) #14
  %157 = load ptr, ptr %14, align 8
  %158 = getelementptr inbounds nuw %struct.AllocSetContext, ptr %157, i32 0, i32 2
  %159 = getelementptr inbounds [11 x ptr], ptr %158, i64 0, i64 0
  store ptr %159, ptr %18, align 8
  call void @llvm.lifetime.start.p0(i64 4, ptr %19) #14
  store i32 0, ptr %19, align 4
  call void @llvm.lifetime.start.p0(i64 8, ptr %20) #14
  store i64 88, ptr %20, align 8
  %160 = load i64, ptr %20, align 8
  %161 = and i64 %160, 7
  %162 = icmp eq i64 %161, 0
  br i1 %162, label %163, label %181

163:                                              ; preds = %156
  %164 = load i32, ptr %19, align 4
  %165 = icmp eq i32 %164, 0
  br i1 %165, label %166, label %181

166:                                              ; preds = %163
  %167 = load i64, ptr %20, align 8
  %168 = icmp ule i64 %167, 1024
  br i1 %168, label %169, label %181

169:                                              ; preds = %166
  call void @llvm.lifetime.start.p0(i64 8, ptr %21) #14
  %170 = load ptr, ptr %18, align 8
  %171 = load i64, ptr %20, align 8
  %172 = getelementptr inbounds nuw i8, ptr %170, i64 %171
  store ptr %172, ptr %21, align 8
  br label %173

173:                                              ; preds = %177, %169
  %174 = load ptr, ptr %18, align 8
  %175 = load ptr, ptr %21, align 8
  %176 = icmp ult ptr %174, %175
  br i1 %176, label %177, label %180

177:                                              ; preds = %173
  %178 = load ptr, ptr %18, align 8
  %179 = getelementptr inbounds nuw i64, ptr %178, i32 1
  store ptr %179, ptr %18, align 8
  store i64 0, ptr %178, align 8
  br label %173, !llvm.loop !4

180:                                              ; preds = %173
  call void @llvm.lifetime.end.p0(i64 8, ptr %21) #14
  br label %186

181:                                              ; preds = %166, %163, %156
  %182 = load ptr, ptr %18, align 8
  %183 = load i32, ptr %19, align 4
  %184 = trunc i32 %183 to i8
  %185 = load i64, ptr %20, align 8
  call void @llvm.memset.p0.i64(ptr align 8 %182, i8 %184, i64 %185, i1 false)
  br label %186

186:                                              ; preds = %181, %180
  call void @llvm.lifetime.end.p0(i64 8, ptr %20) #14
  call void @llvm.lifetime.end.p0(i64 4, ptr %19) #14
  call void @llvm.lifetime.end.p0(i64 8, ptr %18) #14
  br label %187

187:                                              ; preds = %186
  br label %188

188:                                              ; preds = %187
  %189 = load i64, ptr %10, align 8
  %190 = trunc i64 %189 to i32
  %191 = load ptr, ptr %14, align 8
  %192 = getelementptr inbounds nuw %struct.AllocSetContext, ptr %191, i32 0, i32 3
  store i32 %190, ptr %192, align 8
  %193 = load i64, ptr %11, align 8
  %194 = trunc i64 %193 to i32
  %195 = load ptr, ptr %14, align 8
  %196 = getelementptr inbounds nuw %struct.AllocSetContext, ptr %195, i32 0, i32 4
  store i32 %194, ptr %196, align 4
  %197 = load i64, ptr %10, align 8
  %198 = trunc i64 %197 to i32
  %199 = load ptr, ptr %14, align 8
  %200 = getelementptr inbounds nuw %struct.AllocSetContext, ptr %199, i32 0, i32 5
  store i32 %198, ptr %200, align 8
  %201 = load i32, ptr %12, align 4
  %202 = load ptr, ptr %14, align 8
  %203 = getelementptr inbounds nuw %struct.AllocSetContext, ptr %202, i32 0, i32 7
  store i32 %201, ptr %203, align 8
  br label %204

204:                                              ; preds = %188
  br label %205

205:                                              ; preds = %204
  br label %206

206:                                              ; preds = %205
  %207 = load ptr, ptr %14, align 8
  %208 = getelementptr inbounds nuw %struct.AllocSetContext, ptr %207, i32 0, i32 6
  store i32 8192, ptr %208, align 4
  br label %209

209:                                              ; preds = %219, %206
  %210 = load ptr, ptr %14, align 8
  %211 = getelementptr inbounds nuw %struct.AllocSetContext, ptr %210, i32 0, i32 6
  %212 = load i32, ptr %211, align 4
  %213 = zext i32 %212 to i64
  %214 = add i64 %213, 8
  %215 = load i64, ptr %11, align 8
  %216 = sub i64 %215, 40
  %217 = udiv i64 %216, 4
  %218 = icmp ugt i64 %214, %217
  br i1 %218, label %219, label %224

219:                                              ; preds = %209
  %220 = load ptr, ptr %14, align 8
  %221 = getelementptr inbounds nuw %struct.AllocSetContext, ptr %220, i32 0, i32 6
  %222 = load i32, ptr %221, align 4
  %223 = lshr i32 %222, 1
  store i32 %223, ptr %221, align 4
  br label %209, !llvm.loop !6

224:                                              ; preds = %209
  %225 = load ptr, ptr %14, align 8
  %226 = load ptr, ptr %7, align 8
  %227 = load ptr, ptr %8, align 8
  call void @MemoryContextCreate(ptr noundef %225, i32 noundef 473, i32 noundef 3, ptr noundef %226, ptr noundef %227)
  %228 = load i64, ptr %13, align 8
  %229 = load ptr, ptr %14, align 8
  %230 = getelementptr inbounds nuw %struct.MemoryContextData, ptr %229, i32 0, i32 3
  store i64 %228, ptr %230, align 8
  %231 = load ptr, ptr %14, align 8
  store ptr %231, ptr %6, align 8
  store i32 1, ptr %17, align 4
  br label %232

232:                                              ; preds = %224, %81
  call void @llvm.lifetime.end.p0(i64 8, ptr %15) #14
  call void @llvm.lifetime.end.p0(i64 8, ptr %14) #14
  call void @llvm.lifetime.end.p0(i64 8, ptr %13) #14
  call void @llvm.lifetime.end.p0(i64 4, ptr %12) #14
  %233 = load ptr, ptr %6, align 8
  ret ptr %233
}