; Function Attrs: nounwind uwtable
define dso_local ptr @AllocSetContextCreateInternal(ptr noundef %0, ptr noundef %1, i64 noundef %2, i64 noundef %3, i64 noundef %4) local_unnamed_addr #0 {
  %6 = icmp eq i64 %2, 0
  %7 = icmp eq i64 %3, 8192
  %or.cond = and i1 %6, %7
  br i1 %or.cond, label %.thread, label %8

8:                                                ; preds = %5
  %9 = icmp eq i64 %3, 1024
  %or.cond3 = and i1 %6, %9
  br i1 %or.cond3, label %.thread, label %.critedge

.thread:                                          ; preds = %5, %8
  %.08295 = phi i32 [ 1, %8 ], [ 0, %5 ]
  %10 = zext nneg i32 %.08295 to i64
  %11 = getelementptr inbounds nuw [2 x %struct.AllocSetFreeList], ptr @context_freelists, i64 0, i64 %10
  %12 = getelementptr inbounds nuw i8, ptr %11, i64 8
  %13 = load ptr, ptr %12, align 8
  %.not = icmp eq ptr %13, null
  br i1 %.not, label %.critedge.thread, label %14

14:                                               ; preds = %.thread
  %15 = getelementptr inbounds nuw i8, ptr %13, i64 48
  %16 = load ptr, ptr %15, align 8
  store ptr %16, ptr %12, align 8
  %17 = load i32, ptr %11, align 16
  %18 = add i32 %17, -1
  store i32 %18, ptr %11, align 16
  %19 = trunc i64 %4 to i32
  %20 = getelementptr inbounds nuw i8, ptr %13, i64 180
  store i32 %19, ptr %20, align 4
  tail call void @MemoryContextCreate(ptr noundef nonnull %13, i32 noundef 473, i32 noundef 3, ptr noundef %0, ptr noundef %1) #15
  %21 = getelementptr inbounds nuw i8, ptr %13, i64 232
  %22 = load ptr, ptr %21, align 8
  %23 = ptrtoint ptr %22 to i64
  %24 = ptrtoint ptr %13 to i64
  %25 = sub i64 %23, %24
  br label %59

.critedge:                                        ; preds = %8
  %spec.select = select i1 %6, i64 %3, i64 %2
  br label %.critedge.thread

.critedge.thread:                                 ; preds = %.critedge, %.thread
  %.sink = phi i64 [ %3, %.thread ], [ %spec.select, %.critedge ]
  %.0829497 = phi i32 [ %.08295, %.thread ], [ -1, %.critedge ]
  %26 = tail call i64 @llvm.umax.i64(i64 %.sink, i64 248)
  %27 = tail call noalias ptr @malloc(i64 noundef %26) #16
  %28 = icmp eq ptr %27, null
  br i1 %28, label %29, label %37

29:                                               ; preds = %.critedge.thread
  %30 = load ptr, ptr @TopMemoryContext, align 8
  %.not91 = icmp eq ptr %30, null
  br i1 %.not91, label %32, label %31

31:                                               ; preds = %29
  tail call void @MemoryContextStats(ptr noundef nonnull %30) #15
  br label %32

32:                                               ; preds = %31, %29
  %33 = tail call zeroext i1 @errstart_cold(i32 noundef 21, ptr noundef null) #17
  tail call void @llvm.assume(i1 %33)
  %34 = tail call i32 @errcode(i32 noundef 8389) #15
  %35 = tail call i32 (ptr, ...) @errmsg(ptr noundef nonnull @.str) #15
  %36 = tail call i32 (ptr, ...) @errdetail(ptr noundef nonnull @.str.1, ptr noundef %1) #15
  tail call void @errfinish(ptr noundef nonnull @.str.2, i32 noundef 453, ptr noundef nonnull @__func__.AllocSetContextCreateInternal) #15
  unreachable

37:                                               ; preds = %.critedge.thread
  %38 = getelementptr inbounds nuw i8, ptr %27, i64 200
  store ptr %27, ptr %38, align 8
  %39 = getelementptr inbounds nuw i8, ptr %27, i64 240
  %40 = getelementptr inbounds nuw i8, ptr %27, i64 224
  store ptr %39, ptr %40, align 8
  %41 = getelementptr inbounds nuw i8, ptr %27, i64 %26
  %42 = getelementptr inbounds nuw i8, ptr %27, i64 232
  store ptr %41, ptr %42, align 8
  %43 = getelementptr inbounds nuw i8, ptr %27, i64 208
  %44 = getelementptr inbounds nuw i8, ptr %27, i64 80
  tail call void @llvm.memset.p0.i64(ptr noundef nonnull align 8 dereferenceable(16) %43, i8 0, i64 16, i1 false)
  store ptr %38, ptr %44, align 8
  %scevgep = getelementptr i8, ptr %27, i64 88
  tail call void @llvm.memset.p0.i64(ptr noundef nonnull align 8 dereferenceable(88) %scevgep, i8 0, i64 88, i1 false)
  %45 = trunc i64 %3 to i32
  %46 = getelementptr inbounds nuw i8, ptr %27, i64 176
  store i32 %45, ptr %46, align 8
  %47 = trunc i64 %4 to i32
  %48 = getelementptr inbounds nuw i8, ptr %27, i64 180
  store i32 %47, ptr %48, align 4
  %49 = getelementptr inbounds nuw i8, ptr %27, i64 184
  store i32 %45, ptr %49, align 8
  %50 = getelementptr inbounds nuw i8, ptr %27, i64 192
  store i32 %.0829497, ptr %50, align 8
  %51 = add i64 %4, -40
  %52 = lshr i64 %51, 2
  br label %53

53:                                               ; preds = %53, %37
  %storemerge = phi i32 [ 8192, %37 ], [ %56, %53 ]
  %narrow = add nuw nsw i32 %storemerge, 8
  %54 = zext nneg i32 %narrow to i64
  %55 = icmp samesign ult i64 %52, %54
  %56 = lshr i32 %storemerge, 1
  br i1 %55, label %53, label %57, !llvm.loop !4

57:                                               ; preds = %53
  %58 = getelementptr inbounds nuw i8, ptr %27, i64 188
  store i32 %storemerge, ptr %58, align 4
  tail call void @MemoryContextCreate(ptr noundef nonnull %27, i32 noundef 473, i32 noundef 3, ptr noundef %0, ptr noundef %1) #15
  br label %59

59:                                               ; preds = %14, %57
  %.sink102 = phi ptr [ %13, %14 ], [ %27, %57 ]
  %.sink100 = phi i64 [ %25, %14 ], [ %26, %57 ]
  %60 = getelementptr inbounds nuw i8, ptr %.sink102, i64 8
  store i64 %.sink100, ptr %60, align 8
  ret ptr %.sink102
}